#include <math.h>
#include <stdio.h>
#include <stdlib.h>
#include <string.h>

int main()
    {
    int a,b,c,d,e;
scanf("%d",&a);

if(a>9)
{
       if(a>99)
       {
               if(a>999)
                        {
                            b=a%10;
                        c=((a-b)%100)/10;
                        d=((a-b-c)%1000)/100;
                        e=((a-b-c-d)%10000)/1000;
                        printf("%d%d%d%d",b,c,d,e);
                        }
                        else
                        {
                            b=a%10;
                        c=((a-b)%100)/10;
                        d=((a-b-c)%1000)/100;
                        printf("%d%d%d",b,c,d);
                        }
                        }
                        else
                        {
                            b=a%10;
                        c=((a-b)%100)/10;
printf("%d%d",b,c);
                        }
                        }
                        else
                        {
                            b=a%10;
                            printf("%d",b);
                            }
                        return 0;
                        }
                       
