; ModuleID = '16/1193.c'
source_filename = "16/1193.c"
target datalayout = "e-m:e-p270:32:32-p271:32:32-p272:64:64-i64:64-f80:128-n8:16:32:64-S128"
target triple = "x86_64-pc-linux-gnu"

@.str = private unnamed_addr constant [3 x i8] c"%d\00", align 1
@.str.1 = private unnamed_addr constant [9 x i8] c"%d%d%d%d\00", align 1
@.str.2 = private unnamed_addr constant [7 x i8] c"%d%d%d\00", align 1
@.str.3 = private unnamed_addr constant [5 x i8] c"%d%d\00", align 1

; Function Attrs: noinline nounwind uwtable
define dso_local i32 @main() #0 {
  %1 = alloca i32, align 4
  %2 = alloca i32, align 4
  %3 = alloca i32, align 4
  %4 = alloca i32, align 4
  %5 = alloca i32, align 4
  %6 = alloca i32, align 4
  store i32 0, i32* %1, align 4
  %7 = call i32 (i8*, ...) @__isoc99_scanf(i8* getelementptr inbounds ([3 x i8], [3 x i8]* @.str, i64 0, i64 0), i32* %2)
  %8 = load i32, i32* %2, align 4
  %9 = icmp sgt i32 %8, 9
  br i1 %9, label %10, label %77

10:                                               ; preds = %0
  %11 = load i32, i32* %2, align 4
  %12 = icmp sgt i32 %11, 99
  br i1 %12, label %13, label %65

13:                                               ; preds = %10
  %14 = load i32, i32* %2, align 4
  %15 = icmp sgt i32 %14, 999
  br i1 %15, label %16, label %45

16:                                               ; preds = %13
  %17 = load i32, i32* %2, align 4
  %18 = srem i32 %17, 10
  store i32 %18, i32* %3, align 4
  %19 = load i32, i32* %2, align 4
  %20 = load i32, i32* %3, align 4
  %21 = sub nsw i32 %19, %20
  %22 = srem i32 %21, 100
  %23 = sdiv i32 %22, 10
  store i32 %23, i32* %4, align 4
  %24 = load i32, i32* %2, align 4
  %25 = load i32, i32* %3, align 4
  %26 = sub nsw i32 %24, %25
  %27 = load i32, i32* %4, align 4
  %28 = sub nsw i32 %26, %27
  %29 = srem i32 %28, 1000
  %30 = sdiv i32 %29, 100
  store i32 %30, i32* %5, align 4
  %31 = load i32, i32* %2, align 4
  %32 = load i32, i32* %3, align 4
  %33 = sub nsw i32 %31, %32
  %34 = load i32, i32* %4, align 4
  %35 = sub nsw i32 %33, %34
  %36 = load i32, i32* %5, align 4
  %37 = sub nsw i32 %35, %36
  %38 = srem i32 %37, 10000
  %39 = sdiv i32 %38, 1000
  store i32 %39, i32* %6, align 4
  %40 = load i32, i32* %3, align 4
  %41 = load i32, i32* %4, align 4
  %42 = load i32, i32* %5, align 4
  %43 = load i32, i32* %6, align 4
  %44 = call i32 (i8*, ...) @printf(i8* getelementptr inbounds ([9 x i8], [9 x i8]* @.str.1, i64 0, i64 0), i32 %40, i32 %41, i32 %42, i32 %43)
  br label %64

45:                                               ; preds = %13
  %46 = load i32, i32* %2, align 4
  %47 = srem i32 %46, 10
  store i32 %47, i32* %3, align 4
  %48 = load i32, i32* %2, align 4
  %49 = load i32, i32* %3, align 4
  %50 = sub nsw i32 %48, %49
  %51 = srem i32 %50, 100
  %52 = sdiv i32 %51, 10
  store i32 %52, i32* %4, align 4
  %53 = load i32, i32* %2, align 4
  %54 = load i32, i32* %3, align 4
  %55 = sub nsw i32 %53, %54
  %56 = load i32, i32* %4, align 4
  %57 = sub nsw i32 %55, %56
  %58 = srem i32 %57, 1000
  %59 = sdiv i32 %58, 100
  store i32 %59, i32* %5, align 4
  %60 = load i32, i32* %3, align 4
  %61 = load i32, i32* %4, align 4
  %62 = load i32, i32* %5, align 4
  %63 = call i32 (i8*, ...) @printf(i8* getelementptr inbounds ([7 x i8], [7 x i8]* @.str.2, i64 0, i64 0), i32 %60, i32 %61, i32 %62)
  br label %64

64:                                               ; preds = %45, %16
  br label %76

65:                                               ; preds = %10
  %66 = load i32, i32* %2, align 4
  %67 = srem i32 %66, 10
  store i32 %67, i32* %3, align 4
  %68 = load i32, i32* %2, align 4
  %69 = load i32, i32* %3, align 4
  %70 = sub nsw i32 %68, %69
  %71 = srem i32 %70, 100
  %72 = sdiv i32 %71, 10
  store i32 %72, i32* %4, align 4
  %73 = load i32, i32* %3, align 4
  %74 = load i32, i32* %4, align 4
  %75 = call i32 (i8*, ...) @printf(i8* getelementptr inbounds ([5 x i8], [5 x i8]* @.str.3, i64 0, i64 0), i32 %73, i32 %74)
  br label %76

76:                                               ; preds = %65, %64
  br label %82

77:                                               ; preds = %0
  %78 = load i32, i32* %2, align 4
  %79 = srem i32 %78, 10
  store i32 %79, i32* %3, align 4
  %80 = load i32, i32* %3, align 4
  %81 = call i32 (i8*, ...) @printf(i8* getelementptr inbounds ([3 x i8], [3 x i8]* @.str, i64 0, i64 0), i32 %80)
  br label %82

82:                                               ; preds = %77, %76
  ret i32 0
}

declare dso_local i32 @__isoc99_scanf(i8*, ...) #1

declare dso_local i32 @printf(i8*, ...) #1


!llvm.module.flags = !{!0}
!llvm.ident = !{!1}

!0 = !{i32 1, !"wchar_size", i32 4}
!1 = !{!"clang version 10.0.0-4ubuntu1 "}
